#include <math.h>
#include <stdio.h>
#include <stdlib.h>
#include <string.h>

void main()
{
	int a[100],n,m,i,j,mid1,mid2;
	scanf("%d%d",&n,&m);
	for(i=0;i<n;i++) scanf("%d",&a[i]);
	for(i=n-m;i<n;i++)
	{
		mid1=a[i];
		for(j=i-n+m;j<=i;j++)
		{
			mid2=a[j];
			a[j]=mid1;
			mid1=mid2;
		}
	}
	for(i=0;i<n;i++) 
	{
		if(i!=0) printf(" ");
		printf("%d",a[i]);
	}
}
