; ModuleID = '52/997.c'
source_filename = "52/997.c"
target datalayout = "e-m:e-p270:32:32-p271:32:32-p272:64:64-i64:64-f80:128-n8:16:32:64-S128"
target triple = "x86_64-pc-linux-gnu"

@.str = private unnamed_addr constant [5 x i8] c"%d%d\00", align 1
@.str.1 = private unnamed_addr constant [3 x i8] c"%d\00", align 1
@.str.2 = private unnamed_addr constant [2 x i8] c" \00", align 1

; Function Attrs: noinline nounwind uwtable
define dso_local void @main() #0 {
  %1 = alloca [100 x i32], align 16
  %2 = alloca i32, align 4
  %3 = alloca i32, align 4
  %4 = alloca i32, align 4
  %5 = alloca i32, align 4
  %6 = alloca i32, align 4
  %7 = alloca i32, align 4
  %8 = call i32 (i8*, ...) @__isoc99_scanf(i8* getelementptr inbounds ([5 x i8], [5 x i8]* @.str, i64 0, i64 0), i32* %2, i32* %3)
  store i32 0, i32* %4, align 4
  br label %9

9:                                                ; preds = %18, %0
  %10 = load i32, i32* %4, align 4
  %11 = load i32, i32* %2, align 4
  %12 = icmp slt i32 %10, %11
  br i1 %12, label %13, label %21

13:                                               ; preds = %9
  %14 = load i32, i32* %4, align 4
  %15 = sext i32 %14 to i64
  %16 = getelementptr inbounds [100 x i32], [100 x i32]* %1, i64 0, i64 %15
  %17 = call i32 (i8*, ...) @__isoc99_scanf(i8* getelementptr inbounds ([3 x i8], [3 x i8]* @.str.1, i64 0, i64 0), i32* %16)
  br label %18

18:                                               ; preds = %13
  %19 = load i32, i32* %4, align 4
  %20 = add nsw i32 %19, 1
  store i32 %20, i32* %4, align 4
  br label %9

21:                                               ; preds = %9
  %22 = load i32, i32* %2, align 4
  %23 = load i32, i32* %3, align 4
  %24 = sub nsw i32 %22, %23
  store i32 %24, i32* %4, align 4
  br label %25

25:                                               ; preds = %57, %21
  %26 = load i32, i32* %4, align 4
  %27 = load i32, i32* %2, align 4
  %28 = icmp slt i32 %26, %27
  br i1 %28, label %29, label %60

29:                                               ; preds = %25
  %30 = load i32, i32* %4, align 4
  %31 = sext i32 %30 to i64
  %32 = getelementptr inbounds [100 x i32], [100 x i32]* %1, i64 0, i64 %31
  %33 = load i32, i32* %32, align 4
  store i32 %33, i32* %6, align 4
  %34 = load i32, i32* %4, align 4
  %35 = load i32, i32* %2, align 4
  %36 = sub nsw i32 %34, %35
  %37 = load i32, i32* %3, align 4
  %38 = add nsw i32 %36, %37
  store i32 %38, i32* %5, align 4
  br label %39

39:                                               ; preds = %53, %29
  %40 = load i32, i32* %5, align 4
  %41 = load i32, i32* %4, align 4
  %42 = icmp sle i32 %40, %41
  br i1 %42, label %43, label %56

43:                                               ; preds = %39
  %44 = load i32, i32* %5, align 4
  %45 = sext i32 %44 to i64
  %46 = getelementptr inbounds [100 x i32], [100 x i32]* %1, i64 0, i64 %45
  %47 = load i32, i32* %46, align 4
  store i32 %47, i32* %7, align 4
  %48 = load i32, i32* %6, align 4
  %49 = load i32, i32* %5, align 4
  %50 = sext i32 %49 to i64
  %51 = getelementptr inbounds [100 x i32], [100 x i32]* %1, i64 0, i64 %50
  store i32 %48, i32* %51, align 4
  %52 = load i32, i32* %7, align 4
  store i32 %52, i32* %6, align 4
  br label %53

53:                                               ; preds = %43
  %54 = load i32, i32* %5, align 4
  %55 = add nsw i32 %54, 1
  store i32 %55, i32* %5, align 4
  br label %39

56:                                               ; preds = %39
  br label %57

57:                                               ; preds = %56
  %58 = load i32, i32* %4, align 4
  %59 = add nsw i32 %58, 1
  store i32 %59, i32* %4, align 4
  br label %25

60:                                               ; preds = %25
  store i32 0, i32* %4, align 4
  br label %61

61:                                               ; preds = %76, %60
  %62 = load i32, i32* %4, align 4
  %63 = load i32, i32* %2, align 4
  %64 = icmp slt i32 %62, %63
  br i1 %64, label %65, label %79

65:                                               ; preds = %61
  %66 = load i32, i32* %4, align 4
  %67 = icmp ne i32 %66, 0
  br i1 %67, label %68, label %70

68:                                               ; preds = %65
  %69 = call i32 (i8*, ...) @printf(i8* getelementptr inbounds ([2 x i8], [2 x i8]* @.str.2, i64 0, i64 0))
  br label %70

70:                                               ; preds = %68, %65
  %71 = load i32, i32* %4, align 4
  %72 = sext i32 %71 to i64
  %73 = getelementptr inbounds [100 x i32], [100 x i32]* %1, i64 0, i64 %72
  %74 = load i32, i32* %73, align 4
  %75 = call i32 (i8*, ...) @printf(i8* getelementptr inbounds ([3 x i8], [3 x i8]* @.str.1, i64 0, i64 0), i32 %74)
  br label %76

76:                                               ; preds = %70
  %77 = load i32, i32* %4, align 4
  %78 = add nsw i32 %77, 1
  store i32 %78, i32* %4, align 4
  br label %61

79:                                               ; preds = %61
  ret void
}

declare dso_local i32 @__isoc99_scanf(i8*, ...) #1

declare dso_local i32 @printf(i8*, ...) #1


!llvm.module.flags = !{!0}
!llvm.ident = !{!1}

!0 = !{i32 1, !"wchar_size", i32 4}
!1 = !{!"clang version 10.0.0-4ubuntu1 "}
